target datalayout = "e-m:e-p270:32:32-p271:32:32-p272:64:64-i64:64-i128:128-f80:128-n8:16:32:64-S128"
target triple = "x86_64-pc-linux-gnu"

%struct._et_dissector_info = type { ptr }
%struct._packet_info = type { ptr, ptr, i32, i32, %struct.nstime_t, %struct.nstime_t, %struct.nstime_t, i8, ptr, ptr, ptr, ptr, %struct._address, %struct._address, %struct._address, %struct._address, %struct._address, %struct._address, i32, ptr, i8, [3 x i8], %struct.anon, i32, i32, i32, i32, ptr, i8, ptr, ptr, i16, i16, i32, i32, i16, i32, i32, ptr, ptr, ptr, i8, i8, i16, i16, i16, i32, i16, i16, ptr, ptr, ptr, ptr, ptr, i32, i32 }
%struct.nstime_t = type { i64, i32 }
%struct._address = type { i32, i32, ptr, ptr }
%struct.anon = type { i8, [3 x i8] }
%struct._frame_data = type <{ i32, i32, i32, i32, i32, [4 x i8], i64, ptr, ptr, ptr, i8, i16, [5 x i8], %struct.nstime_t, %struct.nstime_t, i32, i32 }>
%struct._conversation_hash_t = type { ptr, ptr, ptr, i32 }

@ieee802154_endpoint_dissector_info = internal global %struct._et_dissector_info { ptr @ieee802154_endpoint_get_filter_type }, align 8

; Function Attrs: null_pointer_is_valid sspstrong uwtable
define internal i32 @ieee802154_endpoint_packet(ptr noundef %0, ptr noundef %1, ptr noundef %2, ptr noundef %3, i32 noundef %4) #0 {
  %6 = alloca ptr, align 8
  %7 = alloca ptr, align 8
  %8 = alloca ptr, align 8
  %9 = alloca ptr, align 8
  %10 = alloca i32, align 4
  %11 = alloca ptr, align 8
  store ptr %0, ptr %6, align 8
  store ptr %1, ptr %7, align 8
  store ptr %2, ptr %8, align 8
  store ptr %3, ptr %9, align 8
  store i32 %4, ptr %10, align 4
  call void @llvm.lifetime.start.p0(i64 8, ptr %11) #17
  %12 = load ptr, ptr %6, align 8
  store ptr %12, ptr %11, align 8
  %13 = load i32, ptr %10, align 4
  %14 = load ptr, ptr %11, align 8
  %15 = getelementptr inbounds nuw %struct._conversation_hash_t, ptr %14, i32 0, i32 3
  store i32 %13, ptr %15, align 8
  %16 = load ptr, ptr %11, align 8
  %17 = load ptr, ptr %7, align 8
  %18 = getelementptr inbounds nuw %struct._packet_info, ptr %17, i32 0, i32 12
  %19 = load ptr, ptr %7, align 8
  %20 = getelementptr inbounds nuw %struct._packet_info, ptr %19, i32 0, i32 8
  %21 = load ptr, ptr %20, align 8
  %22 = getelementptr inbounds nuw %struct._frame_data, ptr %21, i32 0, i32 2
  %23 = load i32, ptr %22, align 8
  call void @add_endpoint_table_data(ptr noundef %16, ptr noundef %18, i32 noundef 0, i1 noundef zeroext true, i32 noundef 1, i32 noundef %23, ptr noundef @ieee802154_endpoint_dissector_info, i32 noundef 0)
  %24 = load ptr, ptr %11, align 8
  %25 = load ptr, ptr %7, align 8
  %26 = getelementptr inbounds nuw %struct._packet_info, ptr %25, i32 0, i32 13
  %27 = load ptr, ptr %7, align 8
  %28 = getelementptr inbounds nuw %struct._packet_info, ptr %27, i32 0, i32 8
  %29 = load ptr, ptr %28, align 8
  %30 = getelementptr inbounds nuw %struct._frame_data, ptr %29, i32 0, i32 2
  %31 = load i32, ptr %30, align 8
  call void @add_endpoint_table_data(ptr noundef %24, ptr noundef %26, i32 noundef 0, i1 noundef zeroext false, i32 noundef 1, i32 noundef %31, ptr noundef @ieee802154_endpoint_dissector_info, i32 noundef 0)
  call void @llvm.lifetime.end.p0(i64 8, ptr %11) #17
  ret i32 1
}